; Function Attrs: mustprogress uwtable
define hidden i64 @_ZNK7nanogui6Window14preferred_sizeEP10NVGcontext(ptr noundef nonnull align 8 dereferenceable(186) %0, ptr noundef %1) unnamed_addr #0 align 2 {
  %3 = alloca [4 x float], align 16
  %4 = getelementptr inbounds i8, ptr %0, i64 176
  %5 = load ptr, ptr %4, align 8
  %.not = icmp eq ptr %5, null
  br i1 %.not, label %8, label %6

6:                                                ; preds = %2
  %7 = getelementptr inbounds i8, ptr %5, i64 88
  store i8 0, ptr %7, align 8
  br label %8

8:                                                ; preds = %6, %2
  %9 = tail call i64 @_ZNK7nanogui6Widget14preferred_sizeEP10NVGcontext(ptr noundef nonnull align 8 dereferenceable(140) %0, ptr noundef %1)
  %10 = load ptr, ptr %4, align 8
  %.not6 = icmp eq ptr %10, null
  br i1 %.not6, label %13, label %11

11:                                               ; preds = %8
  %12 = getelementptr inbounds i8, ptr %10, i64 88
  store i8 1, ptr %12, align 8
  br label %13

13:                                               ; preds = %11, %8
  %.sroa.3.0.extract.shift = lshr i64 %9, 32
  %.sroa.3.0.extract.trunc = trunc i64 %.sroa.3.0.extract.shift to i32
  %.sroa.0.0.extract.trunc = trunc i64 %9 to i32
  tail call void @nvgFontSize(ptr noundef %1, float noundef 1.800000e+01)
  tail call void @nvgFontFace(ptr noundef %1, ptr noundef nonnull @.str)
  %14 = getelementptr inbounds i8, ptr %0, i64 144
  %15 = tail call noundef ptr @_ZNKSt7__cxx1112basic_stringIcSt11char_traitsIcESaIcEE5c_strEv(ptr noundef nonnull align 8 dereferenceable(32) %14) #12
  %16 = call float @nvgTextBounds(ptr noundef %1, float noundef 0.000000e+00, float noundef 0.000000e+00, ptr noundef %15, ptr noundef null, ptr noundef nonnull %3)
  %17 = getelementptr inbounds i8, ptr %3, i64 8
  %18 = load float, ptr %17, align 8
  %19 = load float, ptr %3, align 16
  %20 = fsub float %18, %19
  %21 = fadd float %20, 2.000000e+01
  %22 = fptosi float %21 to i32
  %.sroa.speculated10 = call i32 @llvm.smax.i32(i32 %.sroa.0.0.extract.trunc, i32 %22)
  %23 = getelementptr inbounds i8, ptr %3, i64 12
  %24 = load float, ptr %23, align 4
  %25 = getelementptr inbounds i8, ptr %3, i64 4
  %26 = load float, ptr %25, align 4
  %27 = fsub float %24, %26
  %28 = fptosi float %27 to i32
  %.sroa.speculated = call i32 @llvm.smax.i32(i32 %.sroa.3.0.extract.trunc, i32 %28)
  %.sroa.2.0.insert.ext = zext i32 %.sroa.speculated to i64
  %.sroa.2.0.insert.shift = shl nuw i64 %.sroa.2.0.insert.ext, 32
  %.sroa.013.0.insert.ext = zext i32 %.sroa.speculated10 to i64
  %.sroa.013.0.insert.insert = or disjoint i64 %.sroa.2.0.insert.shift, %.sroa.013.0.insert.ext
  ret i64 %.sroa.013.0.insert.insert
}